target datalayout = "e-m:e-p270:32:32-p271:32:32-p272:64:64-i64:64-i128:128-f80:128-n8:16:32:64-S128"
target triple = "x86_64-pc-linux-gnu"

@Level = internal global i32 0, align 4
@.str.48 = private unnamed_addr constant [9 x i8] c"</node>\0A\00", align 1
@.str.66 = private unnamed_addr constant [10 x i8] c"</graph>\0A\00", align 1

; Function Attrs: nounwind uwtable
define internal void @tabover(ptr noundef %0) #0 {
  %2 = alloca ptr, align 8
  %3 = alloca i32, align 4
  store ptr %0, ptr %2, align 8, !tbaa !9
  call void @llvm.lifetime.start.p0(i64 4, ptr %3) #13
  %4 = load i32, ptr @Level, align 4, !tbaa !11
  store i32 %4, ptr %3, align 4, !tbaa !11
  br label %5

5:                                                ; preds = %9, %1
  %6 = load i32, ptr %3, align 4, !tbaa !11
  %7 = add nsw i32 %6, -1
  store i32 %7, ptr %3, align 4, !tbaa !11
  %8 = icmp ne i32 %6, 0
  br i1 %8, label %9, label %12

9:                                                ; preds = %5
  %10 = load ptr, ptr %2, align 8, !tbaa !9
  %11 = call i32 @putc(i32 noundef 9, ptr noundef %10)
  br label %5, !llvm.loop !79

12:                                               ; preds = %5
  call void @llvm.lifetime.end.p0(i64 4, ptr %3) #13
  ret void
}

; Function Attrs: nounwind uwtable
define internal void @writeTrl(ptr noundef %0, ptr noundef %1, i1 noundef zeroext %2) #0 {
  %4 = alloca ptr, align 8
  %5 = alloca ptr, align 8
  %6 = alloca i8, align 1
  store ptr %0, ptr %4, align 8, !tbaa !4
  store ptr %1, ptr %5, align 8, !tbaa !9
  %7 = zext i1 %2 to i8
  store i8 %7, ptr %6, align 1, !tbaa !33
  %8 = load ptr, ptr %5, align 8, !tbaa !9
  call void @tabover(ptr noundef %8)
  %9 = load ptr, ptr %5, align 8, !tbaa !9
  %10 = call i32 (ptr, ptr, ...) @fprintf(ptr noundef %9, ptr noundef @.str.66) #13
  %11 = load i32, ptr @Level, align 4, !tbaa !11
  %12 = add nsw i32 %11, -1
  store i32 %12, ptr @Level, align 4, !tbaa !11
  %13 = load i8, ptr %6, align 1, !tbaa !33, !range !35, !noundef !36
  %14 = trunc i8 %13 to i1
  br i1 %14, label %25, label %15

15:                                               ; preds = %3
  %16 = load ptr, ptr %4, align 8, !tbaa !4
  %17 = call ptr @agparent(ptr noundef %16)
  %18 = icmp ne ptr %17, null
  br i1 %18, label %19, label %25

19:                                               ; preds = %15
  %20 = load ptr, ptr %5, align 8, !tbaa !9
  call void @tabover(ptr noundef %20)
  %21 = load ptr, ptr %5, align 8, !tbaa !9
  %22 = call i32 (ptr, ptr, ...) @fprintf(ptr noundef %21, ptr noundef @.str.48) #13
  %23 = load i32, ptr @Level, align 4, !tbaa !11
  %24 = add nsw i32 %23, -1
  store i32 %24, ptr @Level, align 4, !tbaa !11
  br label %25

25:                                               ; preds = %19, %15, %3
  ret void
}