; Function Attrs: nounwind uwtable
define internal fastcc void @writeTrl(ptr noundef %0, ptr noundef captures(none) %1, i1 noundef zeroext %2) unnamed_addr #0 {
  %4 = load i32, ptr @Level, align 4, !tbaa !20
  %.not1.i = icmp eq i32 %4, 0
  br i1 %.not1.i, label %tabover.exit, label %.lr.ph.i

.lr.ph.i:                                         ; preds = %3, %.lr.ph.i
  %.02.i = phi i32 [ %5, %.lr.ph.i ], [ %4, %3 ]
  %5 = add nsw i32 %.02.i, -1
  %6 = tail call i32 @putc(i32 noundef 9, ptr noundef %1)
  %.not.i = icmp eq i32 %5, 0
  br i1 %.not.i, label %tabover.exit, label %.lr.ph.i, !llvm.loop !22

tabover.exit:                                     ; preds = %.lr.ph.i, %3
  %7 = tail call i64 @fwrite(ptr nonnull @.str.66, i64 9, i64 1, ptr %1)
  %8 = load i32, ptr @Level, align 4, !tbaa !20
  %9 = add nsw i32 %8, -1
  store i32 %9, ptr @Level, align 4, !tbaa !20
  br i1 %2, label %19, label %10

10:                                               ; preds = %tabover.exit
  %11 = tail call ptr @agparent(ptr noundef %0) #21
  %.not = icmp eq ptr %11, null
  br i1 %.not, label %19, label %12

12:                                               ; preds = %10
  %13 = load i32, ptr @Level, align 4, !tbaa !20
  %.not1.i5 = icmp eq i32 %13, 0
  br i1 %.not1.i5, label %tabover.exit9, label %.lr.ph.i6

.lr.ph.i6:                                        ; preds = %12, %.lr.ph.i6
  %.02.i7 = phi i32 [ %14, %.lr.ph.i6 ], [ %13, %12 ]
  %14 = add nsw i32 %.02.i7, -1
  %15 = tail call i32 @putc(i32 noundef 9, ptr noundef %1)
  %.not.i8 = icmp eq i32 %14, 0
  br i1 %.not.i8, label %tabover.exit9, label %.lr.ph.i6, !llvm.loop !22

tabover.exit9:                                    ; preds = %.lr.ph.i6, %12
  %16 = tail call i64 @fwrite(ptr nonnull @.str.48, i64 8, i64 1, ptr %1)
  %17 = load i32, ptr @Level, align 4, !tbaa !20
  %18 = add nsw i32 %17, -1
  store i32 %18, ptr @Level, align 4, !tbaa !20
  br label %19

19:                                               ; preds = %tabover.exit9, %10, %tabover.exit
  ret void
}